; Function Attrs: nounwind uwtable
define internal fastcc void @_jumbleAlterDomainStmt(ptr noundef %0, ptr noundef nonnull readonly captures(none) %1) unnamed_addr #0 {
  %3 = getelementptr inbounds nuw i8, ptr %1, i64 4
  %4 = load ptr, ptr %0, align 8
  %5 = getelementptr inbounds nuw i8, ptr %0, i64 8
  %6 = load i64, ptr %5, align 8
  br label %.lr.ph.i

.lr.ph.i:                                         ; preds = %10, %2
  %.026.i = phi ptr [ %15, %10 ], [ %3, %2 ]
  %.02125.i = phi i64 [ %16, %10 ], [ 1, %2 ]
  %.02224.i = phi i64 [ %14, %10 ], [ %6, %2 ]
  %7 = icmp ugt i64 %.02224.i, 1023
  br i1 %7, label %8, label %10

8:                                                ; preds = %.lr.ph.i
  %9 = tail call i64 @hash_bytes_extended(ptr noundef %4, i32 noundef 1024, i64 noundef 0) #9
  store i64 %9, ptr %4, align 1
  br label %10

10:                                               ; preds = %8, %.lr.ph.i
  %.1.i = phi i64 [ 8, %8 ], [ %.02224.i, %.lr.ph.i ]
  %11 = sub nuw nsw i64 1024, %.1.i
  %12 = tail call i64 @llvm.umin.i64(i64 %.02125.i, i64 %11)
  %13 = getelementptr inbounds nuw i8, ptr %4, i64 %.1.i
  tail call void @llvm.memcpy.p0.p0.i64(ptr noundef nonnull align 1 dereferenceable(1) %13, ptr noundef nonnull align 1 dereferenceable(1) %.026.i, i64 %12, i1 false)
  %14 = add nuw nsw i64 %12, %.1.i
  %15 = getelementptr inbounds nuw i8, ptr %.026.i, i64 %12
  %16 = sub i64 %.02125.i, %12
  %.not.i = icmp eq i64 %16, 0
  br i1 %.not.i, label %AppendJumble.exit, label %.lr.ph.i, !llvm.loop !7

AppendJumble.exit:                                ; preds = %10
  store i64 %14, ptr %5, align 8
  %17 = getelementptr inbounds nuw i8, ptr %1, i64 8
  %18 = load ptr, ptr %17, align 8
  tail call fastcc void @_jumbleNode(ptr noundef nonnull %0, ptr noundef %18)
  %19 = getelementptr inbounds nuw i8, ptr %1, i64 16
  %20 = load ptr, ptr %19, align 8
  %.not = icmp eq ptr %20, null
  br i1 %.not, label %36, label %21

21:                                               ; preds = %AppendJumble.exit
  %22 = tail call i64 @strlen(ptr noundef nonnull dereferenceable(1) %20) #8
  %23 = add i64 %22, 1
  %24 = load ptr, ptr %0, align 8
  %25 = load i64, ptr %5, align 8
  %.not23.i = icmp eq i64 %23, 0
  br i1 %.not23.i, label %AppendJumble.exit21, label %.lr.ph.i15

.lr.ph.i15:                                       ; preds = %21, %29
  %.026.i16 = phi ptr [ %34, %29 ], [ %20, %21 ]
  %.02125.i17 = phi i64 [ %35, %29 ], [ %23, %21 ]
  %.02224.i18 = phi i64 [ %33, %29 ], [ %25, %21 ]
  %26 = icmp ugt i64 %.02224.i18, 1023
  br i1 %26, label %27, label %29

27:                                               ; preds = %.lr.ph.i15
  %28 = tail call i64 @hash_bytes_extended(ptr noundef %24, i32 noundef 1024, i64 noundef 0) #9
  store i64 %28, ptr %24, align 1
  br label %29

29:                                               ; preds = %27, %.lr.ph.i15
  %.1.i19 = phi i64 [ 8, %27 ], [ %.02224.i18, %.lr.ph.i15 ]
  %30 = sub nuw nsw i64 1024, %.1.i19
  %31 = tail call i64 @llvm.umin.i64(i64 %.02125.i17, i64 %30)
  %32 = getelementptr inbounds nuw i8, ptr %24, i64 %.1.i19
  tail call void @llvm.memcpy.p0.p0.i64(ptr noundef nonnull align 1 dereferenceable(1) %32, ptr noundef nonnull align 1 dereferenceable(1) %.026.i16, i64 %31, i1 false)
  %33 = add nuw nsw i64 %31, %.1.i19
  %34 = getelementptr inbounds nuw i8, ptr %.026.i16, i64 %31
  %35 = sub i64 %.02125.i17, %31
  %.not.i20 = icmp eq i64 %35, 0
  br i1 %.not.i20, label %AppendJumble.exit21, label %.lr.ph.i15, !llvm.loop !7

AppendJumble.exit21:                              ; preds = %29, %21
  %.022.lcssa.i = phi i64 [ %25, %21 ], [ %33, %29 ]
  store i64 %.022.lcssa.i, ptr %5, align 8
  br label %36

36:                                               ; preds = %AppendJumble.exit21, %AppendJumble.exit
  %37 = getelementptr inbounds nuw i8, ptr %1, i64 24
  %38 = load ptr, ptr %37, align 8
  tail call fastcc void @_jumbleNode(ptr noundef nonnull %0, ptr noundef %38)
  %39 = getelementptr inbounds nuw i8, ptr %1, i64 32
  %40 = load ptr, ptr %0, align 8
  %41 = load i64, ptr %5, align 8
  br label %.lr.ph.i22

.lr.ph.i22:                                       ; preds = %45, %36
  %.026.i23 = phi ptr [ %50, %45 ], [ %39, %36 ]
  %.02125.i24 = phi i64 [ %51, %45 ], [ 4, %36 ]
  %.02224.i25 = phi i64 [ %49, %45 ], [ %41, %36 ]
  %42 = icmp ugt i64 %.02224.i25, 1023
  br i1 %42, label %43, label %45

43:                                               ; preds = %.lr.ph.i22
  %44 = tail call i64 @hash_bytes_extended(ptr noundef %40, i32 noundef 1024, i64 noundef 0) #9
  store i64 %44, ptr %40, align 1
  br label %45

45:                                               ; preds = %43, %.lr.ph.i22
  %.1.i26 = phi i64 [ 8, %43 ], [ %.02224.i25, %.lr.ph.i22 ]
  %46 = sub nuw nsw i64 1024, %.1.i26
  %47 = tail call i64 @llvm.umin.i64(i64 %.02125.i24, i64 %46)
  %48 = getelementptr inbounds nuw i8, ptr %40, i64 %.1.i26
  tail call void @llvm.memcpy.p0.p0.i64(ptr noundef nonnull align 1 dereferenceable(1) %48, ptr noundef nonnull align 1 dereferenceable(1) %.026.i23, i64 %47, i1 false)
  %49 = add nuw nsw i64 %47, %.1.i26
  %50 = getelementptr inbounds nuw i8, ptr %.026.i23, i64 %47
  %51 = sub i64 %.02125.i24, %47
  %.not.i27 = icmp eq i64 %51, 0
  br i1 %.not.i27, label %AppendJumble.exit29, label %.lr.ph.i22, !llvm.loop !7

AppendJumble.exit29:                              ; preds = %45
  store i64 %49, ptr %5, align 8
  %52 = getelementptr inbounds nuw i8, ptr %1, i64 36
  %53 = load ptr, ptr %0, align 8
  br label %.lr.ph.i30

.lr.ph.i30:                                       ; preds = %57, %AppendJumble.exit29
  %.026.i31 = phi ptr [ %62, %57 ], [ %52, %AppendJumble.exit29 ]
  %.02125.i32 = phi i64 [ %63, %57 ], [ 1, %AppendJumble.exit29 ]
  %.02224.i33 = phi i64 [ %61, %57 ], [ %49, %AppendJumble.exit29 ]
  %54 = icmp ugt i64 %.02224.i33, 1023
  br i1 %54, label %55, label %57

55:                                               ; preds = %.lr.ph.i30
  %56 = tail call i64 @hash_bytes_extended(ptr noundef %53, i32 noundef 1024, i64 noundef 0) #9
  store i64 %56, ptr %53, align 1
  br label %57

57:                                               ; preds = %55, %.lr.ph.i30
  %.1.i34 = phi i64 [ 8, %55 ], [ %.02224.i33, %.lr.ph.i30 ]
  %58 = sub nuw nsw i64 1024, %.1.i34
  %59 = tail call i64 @llvm.umin.i64(i64 %.02125.i32, i64 %58)
  %60 = getelementptr inbounds nuw i8, ptr %53, i64 %.1.i34
  tail call void @llvm.memcpy.p0.p0.i64(ptr noundef nonnull align 1 dereferenceable(1) %60, ptr noundef nonnull align 1 dereferenceable(1) %.026.i31, i64 %59, i1 false)
  %61 = add nuw nsw i64 %59, %.1.i34
  %62 = getelementptr inbounds nuw i8, ptr %.026.i31, i64 %59
  %63 = sub i64 %.02125.i32, %59
  %.not.i35 = icmp eq i64 %63, 0
  br i1 %.not.i35, label %AppendJumble.exit37, label %.lr.ph.i30, !llvm.loop !7

AppendJumble.exit37:                              ; preds = %57
  store i64 %61, ptr %5, align 8
  ret void
}